
test:     file format elf32-littlearm


Disassembly of section .init:

00010640 <_init>:
   10640:	e1a0c00d 	mov	ip, sp
   10644:	e92ddff0 	push	{r4, r5, r6, r7, r8, r9, sl, fp, ip, lr, pc}
   10648:	e24cb004 	sub	fp, ip, #4
   1064c:	e91baff0 	ldmdb	fp, {r4, r5, r6, r7, r8, r9, sl, fp, sp, pc}

Disassembly of section .plt:

00010650 <_ZNSolsEPFRSoS_E@plt-0x14>:
   10650:	e52de004 	push	{lr}		; (str lr, [sp, #-4]!)
   10654:	e59fe004 	ldr	lr, [pc, #4]	; 10660 <_init+0x20>
   10658:	e08fe00e 	add	lr, pc, lr
   1065c:	e5bef008 	ldr	pc, [lr, #8]!
   10660:	0001046c 	andeq	r0, r1, ip, ror #8

00010664 <_ZNSolsEPFRSoS_E@plt>:
   10664:	e28fc600 	add	ip, pc, #0, 12
   10668:	e28cca10 	add	ip, ip, #16, 20	; 0x10000
   1066c:	e5bcf46c 	ldr	pc, [ip, #1132]!	; 0x46c

00010670 <_ZSt4endlIcSt11char_traitsIcEERSt13basic_ostreamIT_T0_ES6_@plt>:
   10670:	e28fc600 	add	ip, pc, #0, 12
   10674:	e28cca10 	add	ip, ip, #16, 20	; 0x10000
   10678:	e5bcf464 	ldr	pc, [ip, #1124]!	; 0x464

0001067c <abort@plt>:
   1067c:	e28fc600 	add	ip, pc, #0, 12
   10680:	e28cca10 	add	ip, ip, #16, 20	; 0x10000
   10684:	e5bcf45c 	ldr	pc, [ip, #1116]!	; 0x45c

00010688 <_ZStlsISt11char_traitsIcEERSt13basic_ostreamIcT_ES5_PKc@plt>:
   10688:	e28fc600 	add	ip, pc, #0, 12
   1068c:	e28cca10 	add	ip, ip, #16, 20	; 0x10000
   10690:	e5bcf454 	ldr	pc, [ip, #1108]!	; 0x454

00010694 <_ZNSt8ios_base4InitD1Ev@plt>:
   10694:	e28fc600 	add	ip, pc, #0, 12
   10698:	e28cca10 	add	ip, ip, #16, 20	; 0x10000
   1069c:	e5bcf44c 	ldr	pc, [ip, #1100]!	; 0x44c

000106a0 <__deregister_frame_info@plt>:
   106a0:	e28fc600 	add	ip, pc, #0, 12
   106a4:	e28cca10 	add	ip, ip, #16, 20	; 0x10000
   106a8:	e5bcf444 	ldr	pc, [ip, #1092]!	; 0x444

000106ac <__register_frame_info@plt>:
   106ac:	e28fc600 	add	ip, pc, #0, 12
   106b0:	e28cca10 	add	ip, ip, #16, 20	; 0x10000
   106b4:	e5bcf43c 	ldr	pc, [ip, #1084]!	; 0x43c

000106b8 <_ZNSt8ios_base4InitC1Ev@plt>:
   106b8:	e28fc600 	add	ip, pc, #0, 12
   106bc:	e28cca10 	add	ip, ip, #16, 20	; 0x10000
   106c0:	e5bcf434 	ldr	pc, [ip, #1076]!	; 0x434

000106c4 <__aeabi_atexit@plt>:
   106c4:	e28fc600 	add	ip, pc, #0, 12
   106c8:	e28cca10 	add	ip, ip, #16, 20	; 0x10000
   106cc:	e5bcf42c 	ldr	pc, [ip, #1068]!	; 0x42c

000106d0 <__uClibc_main@plt>:
   106d0:	e28fc600 	add	ip, pc, #0, 12
   106d4:	e28cca10 	add	ip, ip, #16, 20	; 0x10000
   106d8:	e5bcf424 	ldr	pc, [ip, #1060]!	; 0x424

000106dc <_ZNSolsEi@plt>:
   106dc:	e28fc600 	add	ip, pc, #0, 12
   106e0:	e28cca10 	add	ip, ip, #16, 20	; 0x10000
   106e4:	e5bcf41c 	ldr	pc, [ip, #1052]!	; 0x41c

Disassembly of section .text:

000106e8 <_start>:
   106e8:	e3a0b000 	mov	fp, #0
   106ec:	e3a0e000 	mov	lr, #0
   106f0:	e49d1004 	pop	{r1}		; (ldr r1, [sp], #4)
   106f4:	e1a0200d 	mov	r2, sp
   106f8:	e52d2004 	push	{r2}		; (str r2, [sp, #-4]!)
   106fc:	e52d0004 	push	{r0}		; (str r0, [sp, #-4]!)
   10700:	e59fc010 	ldr	ip, [pc, #16]	; 10718 <_start+0x30>
   10704:	e52dc004 	push	{ip}		; (str ip, [sp, #-4]!)
   10708:	e59f000c 	ldr	r0, [pc, #12]	; 1071c <_start+0x34>
   1070c:	e59f300c 	ldr	r3, [pc, #12]	; 10720 <_start+0x38>
   10710:	eaffffee 	b	106d0 <__uClibc_main@plt>
   10714:	ebffffd8 	bl	1067c <abort@plt>
   10718:	00010964 	andeq	r0, r1, r4, ror #18
   1071c:	000108ac 	andeq	r0, r1, ip, lsr #17
   10720:	00010640 	andeq	r0, r1, r0, asr #12

00010724 <deregister_tm_clones>:
   10724:	e59f301c 	ldr	r3, [pc, #28]	; 10748 <deregister_tm_clones+0x24>
   10728:	e59f001c 	ldr	r0, [pc, #28]	; 1074c <deregister_tm_clones+0x28>
   1072c:	e0603003 	rsb	r3, r0, r3
   10730:	e3530006 	cmp	r3, #6
   10734:	912fff1e 	bxls	lr
   10738:	e59f3010 	ldr	r3, [pc, #16]	; 10750 <deregister_tm_clones+0x2c>
   1073c:	e3530000 	cmp	r3, #0
   10740:	012fff1e 	bxeq	lr
   10744:	e12fff13 	bx	r3
   10748:	00020b0f 	andeq	r0, r2, pc, lsl #22
   1074c:	00020b0c 	andeq	r0, r2, ip, lsl #22
   10750:	00000000 	andeq	r0, r0, r0

00010754 <register_tm_clones>:
   10754:	e59f1024 	ldr	r1, [pc, #36]	; 10780 <register_tm_clones+0x2c>
   10758:	e59f0024 	ldr	r0, [pc, #36]	; 10784 <register_tm_clones+0x30>
   1075c:	e0601001 	rsb	r1, r0, r1
   10760:	e1a01141 	asr	r1, r1, #2
   10764:	e0811fa1 	add	r1, r1, r1, lsr #31
   10768:	e1b010c1 	asrs	r1, r1, #1
   1076c:	012fff1e 	bxeq	lr
   10770:	e59f3010 	ldr	r3, [pc, #16]	; 10788 <register_tm_clones+0x34>
   10774:	e3530000 	cmp	r3, #0
   10778:	012fff1e 	bxeq	lr
   1077c:	e12fff13 	bx	r3
   10780:	00020b0c 	andeq	r0, r2, ip, lsl #22
   10784:	00020b0c 	andeq	r0, r2, ip, lsl #22
   10788:	00000000 	andeq	r0, r0, r0

0001078c <__do_global_dtors_aux>:
   1078c:	e92d4010 	push	{r4, lr}
   10790:	e59f402c 	ldr	r4, [pc, #44]	; 107c4 <__do_global_dtors_aux+0x38>
   10794:	e5d43000 	ldrb	r3, [r4]
   10798:	e3530000 	cmp	r3, #0
   1079c:	18bd8010 	popne	{r4, pc}
   107a0:	ebffffdf 	bl	10724 <deregister_tm_clones>
   107a4:	e59f301c 	ldr	r3, [pc, #28]	; 107c8 <__do_global_dtors_aux+0x3c>
   107a8:	e3530000 	cmp	r3, #0
   107ac:	0a000001 	beq	107b8 <__do_global_dtors_aux+0x2c>
   107b0:	e59f0014 	ldr	r0, [pc, #20]	; 107cc <__do_global_dtors_aux+0x40>
   107b4:	ebffffb9 	bl	106a0 <__deregister_frame_info@plt>
   107b8:	e3a03001 	mov	r3, #1
   107bc:	e5c43000 	strb	r3, [r4]
   107c0:	e8bd8010 	pop	{r4, pc}
   107c4:	00020b9c 	muleq	r2, ip, fp
   107c8:	00000000 	andeq	r0, r0, r0
   107cc:	000109b8 			; <UNDEFINED> instruction: 0x000109b8

000107d0 <frame_dummy>:
   107d0:	e59f3040 	ldr	r3, [pc, #64]	; 10818 <frame_dummy+0x48>
   107d4:	e92d4010 	push	{r4, lr}
   107d8:	e3530000 	cmp	r3, #0
   107dc:	0a000002 	beq	107ec <frame_dummy+0x1c>
   107e0:	e59f1034 	ldr	r1, [pc, #52]	; 1081c <frame_dummy+0x4c>
   107e4:	e59f0034 	ldr	r0, [pc, #52]	; 10820 <frame_dummy+0x50>
   107e8:	ebffffaf 	bl	106ac <__register_frame_info@plt>
   107ec:	e59f0030 	ldr	r0, [pc, #48]	; 10824 <frame_dummy+0x54>
   107f0:	e5903000 	ldr	r3, [r0]
   107f4:	e3530000 	cmp	r3, #0
   107f8:	1a000001 	bne	10804 <frame_dummy+0x34>
   107fc:	e8bd4010 	pop	{r4, lr}
   10800:	eaffffd3 	b	10754 <register_tm_clones>
   10804:	e59f301c 	ldr	r3, [pc, #28]	; 10828 <frame_dummy+0x58>
   10808:	e3530000 	cmp	r3, #0
   1080c:	0afffffa 	beq	107fc <frame_dummy+0x2c>
   10810:	e12fff33 	blx	r3
   10814:	eafffff8 	b	107fc <frame_dummy+0x2c>
   10818:	00000000 	andeq	r0, r0, r0
   1081c:	00020ba0 	andeq	r0, r2, r0, lsr #23
   10820:	000109b8 			; <UNDEFINED> instruction: 0x000109b8
   10824:	000209c8 	andeq	r0, r2, r8, asr #19
   10828:	00000000 	andeq	r0, r0, r0

0001082c <_Z9getlength3Box>:
   1082c:	e92d4800 	push	{fp, lr}
   10830:	e28db004 	add	fp, sp, #4
   10834:	e24dd008 	sub	sp, sp, #8
   10838:	e50b0008 	str	r0, [fp, #-8]
   1083c:	e59f1030 	ldr	r1, [pc, #48]	; 10874 <_Z9getlength3Box+0x48>
   10840:	e59f0030 	ldr	r0, [pc, #48]	; 10878 <_Z9getlength3Box+0x4c>
   10844:	ebffff8f 	bl	10688 <_ZStlsISt11char_traitsIcEERSt13basic_ostreamIcT_ES5_PKc@plt>
   10848:	e1a02000 	mov	r2, r0
   1084c:	e51b3008 	ldr	r3, [fp, #-8]
   10850:	e1a01003 	mov	r1, r3
   10854:	e1a00002 	mov	r0, r2
   10858:	ebffff9f 	bl	106dc <_ZNSolsEi@plt>
   1085c:	e1a03000 	mov	r3, r0
   10860:	e59f1014 	ldr	r1, [pc, #20]	; 1087c <_Z9getlength3Box+0x50>
   10864:	e1a00003 	mov	r0, r3
   10868:	ebffff7d 	bl	10664 <_ZNSolsEPFRSoS_E@plt>
   1086c:	e24bd004 	sub	sp, fp, #4
   10870:	e8bd8800 	pop	{fp, pc}
   10874:	00010974 	andeq	r0, r1, r4, ror r9
   10878:	00020b10 	andeq	r0, r2, r0, lsl fp
   1087c:	00010670 	andeq	r0, r1, r0, ror r6

00010880 <_ZN3Box9setlengthEi>:
   10880:	e52db004 	push	{fp}		; (str fp, [sp, #-4]!)
   10884:	e28db000 	add	fp, sp, #0
   10888:	e24dd00c 	sub	sp, sp, #12
   1088c:	e50b0008 	str	r0, [fp, #-8]
   10890:	e50b100c 	str	r1, [fp, #-12]
   10894:	e51b3008 	ldr	r3, [fp, #-8]
   10898:	e51b200c 	ldr	r2, [fp, #-12]
   1089c:	e5832000 	str	r2, [r3]
   108a0:	e24bd000 	sub	sp, fp, #0
   108a4:	e49db004 	pop	{fp}		; (ldr fp, [sp], #4)
   108a8:	e12fff1e 	bx	lr

000108ac <main>:
   108ac:	e92d4800 	push	{fp, lr}
   108b0:	e28db004 	add	fp, sp, #4
   108b4:	e24dd010 	sub	sp, sp, #16
   108b8:	e50b0010 	str	r0, [fp, #-16]
   108bc:	e50b1014 	str	r1, [fp, #-20]	; 0xffffffec
   108c0:	e24b3008 	sub	r3, fp, #8
   108c4:	e3a01009 	mov	r1, #9
   108c8:	e1a00003 	mov	r0, r3
   108cc:	ebffffeb 	bl	10880 <_ZN3Box9setlengthEi>
   108d0:	e51b0008 	ldr	r0, [fp, #-8]
   108d4:	ebffffd4 	bl	1082c <_Z9getlength3Box>
   108d8:	e3a03000 	mov	r3, #0
   108dc:	e1a00003 	mov	r0, r3
   108e0:	e24bd004 	sub	sp, fp, #4
   108e4:	e8bd8800 	pop	{fp, pc}

000108e8 <_Z41__static_initialization_and_destruction_0ii>:
   108e8:	e92d4800 	push	{fp, lr}
   108ec:	e28db004 	add	fp, sp, #4
   108f0:	e24dd008 	sub	sp, sp, #8
   108f4:	e50b0008 	str	r0, [fp, #-8]
   108f8:	e50b100c 	str	r1, [fp, #-12]
   108fc:	e51b3008 	ldr	r3, [fp, #-8]
   10900:	e3530001 	cmp	r3, #1
   10904:	1a000009 	bne	10930 <_Z41__static_initialization_and_destruction_0ii+0x48>
   10908:	e51b300c 	ldr	r3, [fp, #-12]
   1090c:	e59f2024 	ldr	r2, [pc, #36]	; 10938 <_Z41__static_initialization_and_destruction_0ii+0x50>
   10910:	e1530002 	cmp	r3, r2
   10914:	1a000005 	bne	10930 <_Z41__static_initialization_and_destruction_0ii+0x48>
   10918:	e59f001c 	ldr	r0, [pc, #28]	; 1093c <_Z41__static_initialization_and_destruction_0ii+0x54>
   1091c:	ebffff65 	bl	106b8 <_ZNSt8ios_base4InitC1Ev@plt>
   10920:	e59f2018 	ldr	r2, [pc, #24]	; 10940 <_Z41__static_initialization_and_destruction_0ii+0x58>
   10924:	e59f1018 	ldr	r1, [pc, #24]	; 10944 <_Z41__static_initialization_and_destruction_0ii+0x5c>
   10928:	e59f000c 	ldr	r0, [pc, #12]	; 1093c <_Z41__static_initialization_and_destruction_0ii+0x54>
   1092c:	ebffff64 	bl	106c4 <__aeabi_atexit@plt>
   10930:	e24bd004 	sub	sp, fp, #4
   10934:	e8bd8800 	pop	{fp, pc}
   10938:	0000ffff 	strdeq	pc, [r0], -pc	; <UNPREDICTABLE>
   1093c:	00020bb8 			; <UNDEFINED> instruction: 0x00020bb8
   10940:	00020b08 	andeq	r0, r2, r8, lsl #22
   10944:	00010694 	muleq	r1, r4, r6

00010948 <_GLOBAL__sub_I__Z9getlength3Box>:
   10948:	e92d4800 	push	{fp, lr}
   1094c:	e28db004 	add	fp, sp, #4
   10950:	e59f1008 	ldr	r1, [pc, #8]	; 10960 <_GLOBAL__sub_I__Z9getlength3Box+0x18>
   10954:	e3a00001 	mov	r0, #1
   10958:	ebffffe2 	bl	108e8 <_Z41__static_initialization_and_destruction_0ii>
   1095c:	e8bd8800 	pop	{fp, pc}
   10960:	0000ffff 	strdeq	pc, [r0], -pc	; <UNPREDICTABLE>

Disassembly of section .fini:

00010964 <_fini>:
   10964:	e1a0c00d 	mov	ip, sp
   10968:	e92ddff0 	push	{r4, r5, r6, r7, r8, r9, sl, fp, ip, lr, pc}
   1096c:	e24cb004 	sub	fp, ip, #4
   10970:	e91baff0 	ldmdb	fp, {r4, r5, r6, r7, r8, r9, sl, fp, sp, pc}
